; Function Attrs: nounwind uwtable
define range(i32 -2147483648, 1000000) i32 @Ivy_ObjLevelRNew(ptr noundef %0, ptr noundef %1) local_unnamed_addr #1 {
  %3 = tail call noalias dereferenceable_or_null(16) ptr @malloc(i64 noundef 16) #18
  %4 = getelementptr inbounds nuw i8, ptr %3, i64 4
  store i32 0, ptr %4, align 4
  store i32 10, ptr %3, align 8
  %5 = tail call noalias dereferenceable_or_null(80) ptr @malloc(i64 noundef 80) #18
  %6 = getelementptr inbounds nuw i8, ptr %3, i64 8
  store ptr %5, ptr %6, align 8
  tail call void @Ivy_ObjCollectFanouts(ptr noundef %0, ptr noundef %1, ptr noundef nonnull %3) #19
  %.val = load i32, ptr %4, align 4
  %7 = icmp sgt i32 %.val, 0
  %.pr.pre = load ptr, ptr %6, align 8
  br i1 %7, label %.lr.ph, label %.critedge

.lr.ph:                                           ; preds = %2
  %8 = getelementptr inbounds nuw i8, ptr %0, i64 184
  %wide.trip.count = zext nneg i32 %.val to i64
  br label %9

9:                                                ; preds = %.lr.ph, %12
  %indvars.iv = phi i64 [ 0, %.lr.ph ], [ %indvars.iv.next, %12 ]
  %.022 = phi i32 [ 1000000, %.lr.ph ], [ %19, %12 ]
  %10 = getelementptr inbounds nuw ptr, ptr %.pr.pre, i64 %indvars.iv
  %11 = load ptr, ptr %10, align 8
  %.not = icmp eq ptr %11, null
  br i1 %.not, label %.critedge.thread.loopexit, label %12

12:                                               ; preds = %9
  %13 = load ptr, ptr %8, align 8
  %14 = load i32, ptr %11, align 8
  %15 = getelementptr i8, ptr %13, i64 8
  %.val18 = load ptr, ptr %15, align 8
  %16 = sext i32 %14 to i64
  %17 = getelementptr inbounds i32, ptr %.val18, i64 %16
  %18 = load i32, ptr %17, align 4
  %19 = tail call i32 @llvm.smin.i32(i32 %.022, i32 %18)
  %indvars.iv.next = add nuw nsw i64 %indvars.iv, 1
  %exitcond.not = icmp eq i64 %indvars.iv.next, %wide.trip.count
  br i1 %exitcond.not, label %.critedge.thread.loopexit, label %9, !llvm.loop !21

.critedge:                                        ; preds = %2
  %.not.i = icmp eq ptr %.pr.pre, null
  br i1 %.not.i, label %Vec_PtrFree.exit, label %.critedge.thread

.critedge.thread.loopexit:                        ; preds = %9, %12
  %.02027.ph = phi i32 [ %.022, %9 ], [ %19, %12 ]
  %20 = add nsw i32 %.02027.ph, -1
  br label %.critedge.thread

.critedge.thread:                                 ; preds = %.critedge.thread.loopexit, %.critedge
  %.02027 = phi i32 [ 999999, %.critedge ], [ %20, %.critedge.thread.loopexit ]
  tail call void @free(ptr noundef nonnull %.pr.pre) #19
  br label %Vec_PtrFree.exit

Vec_PtrFree.exit:                                 ; preds = %.critedge, %.critedge.thread
  %.02028 = phi i32 [ 999999, %.critedge ], [ %.02027, %.critedge.thread ]
  tail call void @free(ptr noundef nonnull %3) #19
  ret i32 %.02028
}